; Function Attrs: nounwind uwtable
define dso_local void @slurmdb_destroy_job_cond(ptr noundef %0) local_unnamed_addr #0 {
  %2 = alloca ptr, align 8
  call void @llvm.lifetime.start.p0(i64 8, ptr nonnull %2) #19
  store ptr %0, ptr %2, align 8
  %.not = icmp eq ptr %0, null
  br i1 %.not, label %4, label %3

3:                                                ; preds = %1
  tail call void @slurmdb_destroy_job_cond_members(ptr noundef nonnull %0)
  call void @slurm_xfree(ptr noundef nonnull %2) #19
  br label %4

4:                                                ; preds = %3, %1
  call void @llvm.lifetime.end.p0(i64 8, ptr nonnull %2) #19
  ret void
}